; Function Attrs: mustprogress nounwind uwtable
define hidden noundef ptr @_ZNK19OpenColorIO_v2_4dev18NamedTransformImpl11getCategoryEi(ptr nocapture noundef nonnull readonly align 8 dereferenceable(224) %this, i32 noundef %index) unnamed_addr #3 align 2 {
entry:
  %cmp.i = icmp slt i32 %index, 0
  br i1 %cmp.i, label %_ZNK19OpenColorIO_v2_4dev13TokensManager8getTokenEi.exit, label %lor.lhs.false.i

lor.lhs.false.i:                                  ; preds = %entry
  %m_tokens.i = getelementptr inbounds i8, ptr %this, i64 168
  %_M_finish.i.i = getelementptr inbounds i8, ptr %this, i64 176
  %0 = load ptr, ptr %_M_finish.i.i, align 8
  %1 = load ptr, ptr %m_tokens.i, align 8
  %sub.ptr.lhs.cast.i.i = ptrtoint ptr %0 to i64
  %sub.ptr.rhs.cast.i.i = ptrtoint ptr %1 to i64
  %sub.ptr.sub.i.i = sub i64 %sub.ptr.lhs.cast.i.i, %sub.ptr.rhs.cast.i.i
  %sub.ptr.div.i.i = lshr exact i64 %sub.ptr.sub.i.i, 5
  %conv.i = trunc i64 %sub.ptr.div.i.i to i32
  %cmp2.not.i = icmp sgt i32 %conv.i, %index
  br i1 %cmp2.not.i, label %if.end.i, label %_ZNK19OpenColorIO_v2_4dev13TokensManager8getTokenEi.exit

if.end.i:                                         ; preds = %lor.lhs.false.i
  %conv4.i = zext nneg i32 %index to i64
  %add.ptr.i.i = getelementptr inbounds %"class.std::__cxx11::basic_string", ptr %1, i64 %conv4.i
  %call6.i = tail call noundef ptr @_ZNKSt7__cxx1112basic_stringIcSt11char_traitsIcESaIcEE5c_strEv(ptr noundef nonnull align 8 dereferenceable(32) %add.ptr.i.i) #17
  br label %_ZNK19OpenColorIO_v2_4dev13TokensManager8getTokenEi.exit

_ZNK19OpenColorIO_v2_4dev13TokensManager8getTokenEi.exit: ; preds = %entry, %lor.lhs.false.i, %if.end.i
  %retval.0.i = phi ptr [ %call6.i, %if.end.i ], [ null, %lor.lhs.false.i ], [ null, %entry ]
  ret ptr %retval.0.i
}